target datalayout = "e-m:e-p270:32:32-p271:32:32-p272:64:64-i64:64-i128:128-f80:128-n8:16:32:64-S128"
target triple = "x86_64-pc-linux-gnu"

%"class.std::__cxx11::basic_string" = type { %"struct.std::__cxx11::basic_string<char>::_Alloc_hider", i64, %union.anon.0 }
%"struct.std::__cxx11::basic_string<char>::_Alloc_hider" = type { ptr }
%union.anon.0 = type { i64, [8 x i8] }
%"class.LIEF::MachO::Builder" = type <{ %"class.std::vector.39", ptr, %"class.LIEF::vector_iostream", i64, %"class.LIEF::vector_iostream", %"struct.LIEF::MachO::Builder::config_t", [7 x i8] }>
%"class.std::vector.39" = type { %"struct.std::_Vector_base.40" }
%"struct.std::_Vector_base.40" = type { %"struct.std::_Vector_base<LIEF::MachO::Binary *, std::allocator<LIEF::MachO::Binary *>>::_Vector_impl" }
%"struct.std::_Vector_base<LIEF::MachO::Binary *, std::allocator<LIEF::MachO::Binary *>>::_Vector_impl" = type { %"struct.std::_Vector_base<LIEF::MachO::Binary *, std::allocator<LIEF::MachO::Binary *>>::_Vector_impl_data" }
%"struct.std::_Vector_base<LIEF::MachO::Binary *, std::allocator<LIEF::MachO::Binary *>>::_Vector_impl_data" = type { ptr, ptr, ptr }
%"class.LIEF::vector_iostream" = type <{ %"class.std::fpos", %"class.std::vector.45", i8, [7 x i8] }>
%"class.std::fpos" = type { i64, %struct.__mbstate_t }
%struct.__mbstate_t = type { i32, %union.anon.44 }
%union.anon.44 = type { i32 }
%"class.std::vector.45" = type { %"struct.std::_Vector_base.46" }
%"struct.std::_Vector_base.46" = type { %"struct.std::_Vector_base<unsigned char, std::allocator<unsigned char>>::_Vector_impl" }
%"struct.std::_Vector_base<unsigned char, std::allocator<unsigned char>>::_Vector_impl" = type { %"struct.std::_Vector_base<unsigned char, std::allocator<unsigned char>>::_Vector_impl_data" }
%"struct.std::_Vector_base<unsigned char, std::allocator<unsigned char>>::_Vector_impl_data" = type { ptr, ptr, ptr }
%"struct.LIEF::MachO::Builder::config_t" = type { i8 }
%"class.LIEF::Binary" = type { %"class.LIEF::Object", i32, i64 }
%"class.LIEF::Object" = type { ptr }
%"class.tl::expected" = type { %"struct.tl::detail::expected_move_assign_base.base", [3 x i8] }
%"struct.tl::detail::expected_move_assign_base.base" = type { %"struct.tl::detail::expected_copy_assign_base.base" }
%"struct.tl::detail::expected_copy_assign_base.base" = type { %"struct.tl::detail::expected_move_base.base" }
%"struct.tl::detail::expected_move_base.base" = type { %"struct.tl::detail::expected_copy_base.base" }
%"struct.tl::detail::expected_copy_base.base" = type { %"struct.tl::detail::expected_operations_base.base" }
%"struct.tl::detail::expected_operations_base.base" = type { %"struct.tl::detail::expected_storage_base.base" }
%"struct.tl::detail::expected_storage_base.base" = type <{ %union.anon.89, i8 }>
%union.anon.89 = type { %"class.tl::unexpected" }
%"class.tl::unexpected" = type { i32 }
%"class.LIEF::MachO::Binary" = type { %"class.LIEF::Binary", i8, %"class.LIEF::MachO::Header", %"class.std::vector.50", %"class.std::vector.55", %"class.std::vector.60", %"class.std::vector.65", %"class.std::vector.70", %"class.std::vector.75", %"class.std::set", i32, %"class.std::map", i64, i64, i64, %"class.std::__cxx11::basic_string" }
%"class.LIEF::MachO::Header" = type { %"class.LIEF::Object", i32, i32, i32, i64, i32, i32, i32, i32 }
%"class.std::vector.50" = type { %"struct.std::_Vector_base.51" }
%"struct.std::_Vector_base.51" = type { %"struct.std::_Vector_base<std::unique_ptr<LIEF::MachO::LoadCommand>, std::allocator<std::unique_ptr<LIEF::MachO::LoadCommand>>>::_Vector_impl" }
%"struct.std::_Vector_base<std::unique_ptr<LIEF::MachO::LoadCommand>, std::allocator<std::unique_ptr<LIEF::MachO::LoadCommand>>>::_Vector_impl" = type { %"struct.std::_Vector_base<std::unique_ptr<LIEF::MachO::LoadCommand>, std::allocator<std::unique_ptr<LIEF::MachO::LoadCommand>>>::_Vector_impl_data" }
%"struct.std::_Vector_base<std::unique_ptr<LIEF::MachO::LoadCommand>, std::allocator<std::unique_ptr<LIEF::MachO::LoadCommand>>>::_Vector_impl_data" = type { ptr, ptr, ptr }
%"class.std::vector.55" = type { %"struct.std::_Vector_base.56" }
%"struct.std::_Vector_base.56" = type { %"struct.std::_Vector_base<std::unique_ptr<LIEF::MachO::Symbol>, std::allocator<std::unique_ptr<LIEF::MachO::Symbol>>>::_Vector_impl" }
%"struct.std::_Vector_base<std::unique_ptr<LIEF::MachO::Symbol>, std::allocator<std::unique_ptr<LIEF::MachO::Symbol>>>::_Vector_impl" = type { %"struct.std::_Vector_base<std::unique_ptr<LIEF::MachO::Symbol>, std::allocator<std::unique_ptr<LIEF::MachO::Symbol>>>::_Vector_impl_data" }
%"struct.std::_Vector_base<std::unique_ptr<LIEF::MachO::Symbol>, std::allocator<std::unique_ptr<LIEF::MachO::Symbol>>>::_Vector_impl_data" = type { ptr, ptr, ptr }
%"class.std::vector.60" = type { %"struct.std::_Vector_base.61" }
%"struct.std::_Vector_base.61" = type { %"struct.std::_Vector_base<LIEF::MachO::DylibCommand *, std::allocator<LIEF::MachO::DylibCommand *>>::_Vector_impl" }
%"struct.std::_Vector_base<LIEF::MachO::DylibCommand *, std::allocator<LIEF::MachO::DylibCommand *>>::_Vector_impl" = type { %"struct.std::_Vector_base<LIEF::MachO::DylibCommand *, std::allocator<LIEF::MachO::DylibCommand *>>::_Vector_impl_data" }
%"struct.std::_Vector_base<LIEF::MachO::DylibCommand *, std::allocator<LIEF::MachO::DylibCommand *>>::_Vector_impl_data" = type { ptr, ptr, ptr }
%"class.std::vector.65" = type { %"struct.std::_Vector_base.66" }
%"struct.std::_Vector_base.66" = type { %"struct.std::_Vector_base<LIEF::MachO::Section *, std::allocator<LIEF::MachO::Section *>>::_Vector_impl" }
%"struct.std::_Vector_base<LIEF::MachO::Section *, std::allocator<LIEF::MachO::Section *>>::_Vector_impl" = type { %"struct.std::_Vector_base<LIEF::MachO::Section *, std::allocator<LIEF::MachO::Section *>>::_Vector_impl_data" }
%"struct.std::_Vector_base<LIEF::MachO::Section *, std::allocator<LIEF::MachO::Section *>>::_Vector_impl_data" = type { ptr, ptr, ptr }
%"class.std::vector.70" = type { %"struct.std::_Vector_base.71" }
%"struct.std::_Vector_base.71" = type { %"struct.std::_Vector_base<LIEF::MachO::SegmentCommand *, std::allocator<LIEF::MachO::SegmentCommand *>>::_Vector_impl" }
%"struct.std::_Vector_base<LIEF::MachO::SegmentCommand *, std::allocator<LIEF::MachO::SegmentCommand *>>::_Vector_impl" = type { %"struct.std::_Vector_base<LIEF::MachO::SegmentCommand *, std::allocator<LIEF::MachO::SegmentCommand *>>::_Vector_impl_data" }
%"struct.std::_Vector_base<LIEF::MachO::SegmentCommand *, std::allocator<LIEF::MachO::SegmentCommand *>>::_Vector_impl_data" = type { ptr, ptr, ptr }
%"class.std::vector.75" = type { %"struct.std::_Vector_base.76" }
%"struct.std::_Vector_base.76" = type { %"struct.std::_Vector_base<std::unique_ptr<LIEF::MachO::Binary>, std::allocator<std::unique_ptr<LIEF::MachO::Binary>>>::_Vector_impl" }
%"struct.std::_Vector_base<std::unique_ptr<LIEF::MachO::Binary>, std::allocator<std::unique_ptr<LIEF::MachO::Binary>>>::_Vector_impl" = type { %"struct.std::_Vector_base<std::unique_ptr<LIEF::MachO::Binary>, std::allocator<std::unique_ptr<LIEF::MachO::Binary>>>::_Vector_impl_data" }
%"struct.std::_Vector_base<std::unique_ptr<LIEF::MachO::Binary>, std::allocator<std::unique_ptr<LIEF::MachO::Binary>>>::_Vector_impl_data" = type { ptr, ptr, ptr }
%"class.std::set" = type { %"class.std::_Rb_tree" }
%"class.std::_Rb_tree" = type { %"struct.std::_Rb_tree<LIEF::MachO::Relocation *, LIEF::MachO::Relocation *, std::_Identity<LIEF::MachO::Relocation *>, LIEF::MachO::Binary::KeyCmp>::_Rb_tree_impl" }
%"struct.std::_Rb_tree<LIEF::MachO::Relocation *, LIEF::MachO::Relocation *, std::_Identity<LIEF::MachO::Relocation *>, LIEF::MachO::Binary::KeyCmp>::_Rb_tree_impl" = type { %"struct.std::_Rb_tree_key_compare", %"struct.std::_Rb_tree_header" }
%"struct.std::_Rb_tree_key_compare" = type { %"struct.LIEF::MachO::Binary::KeyCmp" }
%"struct.LIEF::MachO::Binary::KeyCmp" = type { i8 }
%"struct.std::_Rb_tree_header" = type { %"struct.std::_Rb_tree_node_base", i64 }
%"struct.std::_Rb_tree_node_base" = type { i32, ptr, ptr, ptr }
%"class.std::map" = type { %"class.std::_Rb_tree.83" }
%"class.std::_Rb_tree.83" = type { %"struct.std::_Rb_tree<unsigned long, std::pair<const unsigned long, LIEF::MachO::SegmentCommand *>, std::_Select1st<std::pair<const unsigned long, LIEF::MachO::SegmentCommand *>>, std::less<unsigned long>>::_Rb_tree_impl" }
%"struct.std::_Rb_tree<unsigned long, std::pair<const unsigned long, LIEF::MachO::SegmentCommand *>, std::_Select1st<std::pair<const unsigned long, LIEF::MachO::SegmentCommand *>>, std::less<unsigned long>>::_Rb_tree_impl" = type { %"struct.std::_Rb_tree_key_compare.87", %"struct.std::_Rb_tree_header" }
%"struct.std::_Rb_tree_key_compare.87" = type { %"struct.std::less" }
%"struct.std::less" = type { i8 }
%"struct.LIEF::ok_t" = type { i8 }
%"struct.tl::detail::expected_storage_base" = type <{ %union.anon.89, i8, [3 x i8] }>

@_ZN4LIEF5MachO7BuilderD1Ev = unnamed_addr alias void (ptr), ptr @_ZN4LIEF5MachO7BuilderD2Ev
@_ZN4LIEF5MachO7BuilderC1ERNS0_6BinaryENS1_8config_tE = unnamed_addr alias void (ptr, ptr, i8), ptr @_ZN4LIEF5MachO7BuilderC2ERNS0_6BinaryENS1_8config_tE

; Function Attrs: mustprogress nounwind uwtable
define linkonce_odr hidden void @_ZN2tl6detail21expected_storage_baseIN4LIEF4ok_tE11lief_errorsLb1ELb1EEC2IJS3_ETnPNSt9enable_ifIXsr3std16is_constructibleIS3_DpOT_EE5valueEvE4typeELPv0EEENS_10in_place_tESA_(ptr noundef nonnull align 4 dereferenceable(5) %0, ptr noundef nonnull align 1 dereferenceable(1) %1) unnamed_addr #1 comdat align 2 {
  %3 = alloca ptr, align 8
  %4 = alloca ptr, align 8
  store ptr %0, ptr %3, align 8
  store ptr %1, ptr %4, align 8
  %5 = load ptr, ptr %3, align 8
  %6 = getelementptr inbounds %"struct.tl::detail::expected_storage_base", ptr %5, i32 0, i32 1
  store i8 1, ptr %6, align 4
  ret void
}

; Function Attrs: mustprogress uwtable
define linkonce_odr hidden void @_ZN2tl6detail24expected_operations_baseIN4LIEF4ok_tE11lief_errorsECI2NS0_21expected_storage_baseIS3_S4_Lb1ELb1EEEIJS3_ETnPNSt9enable_ifIXsr3std16is_constructibleIS3_DpOT_EE5valueEvE4typeELPv0EEENS_10in_place_tESA_(ptr noundef nonnull align 4 dereferenceable(5) %0, ptr noundef nonnull align 1 dereferenceable(1) %1) unnamed_addr #3 comdat align 2 {
  %3 = alloca ptr, align 8
  %4 = alloca ptr, align 8
  store ptr %0, ptr %3, align 8
  store ptr %1, ptr %4, align 8
  %5 = load ptr, ptr %3, align 8
  %6 = load ptr, ptr %4, align 8
  call void @_ZN2tl6detail21expected_storage_baseIN4LIEF4ok_tE11lief_errorsLb1ELb1EEC2IJS3_ETnPNSt9enable_ifIXsr3std16is_constructibleIS3_DpOT_EE5valueEvE4typeELPv0EEENS_10in_place_tESA_(ptr noundef nonnull align 4 dereferenceable(5) %5, ptr noundef nonnull align 1 dereferenceable(1) %6)
  ret void
}

; Function Attrs: mustprogress uwtable
define linkonce_odr hidden void @_ZN2tl6detail18expected_copy_baseIN4LIEF4ok_tE11lief_errorsLb1EECI2NS0_21expected_storage_baseIS3_S4_Lb1ELb1EEEIJS3_ETnPNSt9enable_ifIXsr3std16is_constructibleIS3_DpOT_EE5valueEvE4typeELPv0EEENS_10in_place_tESA_(ptr noundef nonnull align 4 dereferenceable(5) %0, ptr noundef nonnull align 1 dereferenceable(1) %1) unnamed_addr #3 comdat align 2 {
  %3 = alloca ptr, align 8
  %4 = alloca ptr, align 8
  store ptr %0, ptr %3, align 8
  store ptr %1, ptr %4, align 8
  %5 = load ptr, ptr %3, align 8
  %6 = load ptr, ptr %4, align 8
  call void @_ZN2tl6detail24expected_operations_baseIN4LIEF4ok_tE11lief_errorsECI2NS0_21expected_storage_baseIS3_S4_Lb1ELb1EEEIJS3_ETnPNSt9enable_ifIXsr3std16is_constructibleIS3_DpOT_EE5valueEvE4typeELPv0EEENS_10in_place_tESA_(ptr noundef nonnull align 4 dereferenceable(5) %5, ptr noundef nonnull align 1 dereferenceable(1) %6)
  ret void
}

; Function Attrs: mustprogress uwtable
define linkonce_odr hidden void @_ZN2tl6detail18expected_move_baseIN4LIEF4ok_tE11lief_errorsLb1EECI2NS0_21expected_storage_baseIS3_S4_Lb1ELb1EEEIJS3_ETnPNSt9enable_ifIXsr3std16is_constructibleIS3_DpOT_EE5valueEvE4typeELPv0EEENS_10in_place_tESA_(ptr noundef nonnull align 4 dereferenceable(5) %0, ptr noundef nonnull align 1 dereferenceable(1) %1) unnamed_addr #3 comdat align 2 {
  %3 = alloca ptr, align 8
  %4 = alloca ptr, align 8
  store ptr %0, ptr %3, align 8
  store ptr %1, ptr %4, align 8
  %5 = load ptr, ptr %3, align 8
  %6 = load ptr, ptr %4, align 8
  call void @_ZN2tl6detail18expected_copy_baseIN4LIEF4ok_tE11lief_errorsLb1EECI2NS0_21expected_storage_baseIS3_S4_Lb1ELb1EEEIJS3_ETnPNSt9enable_ifIXsr3std16is_constructibleIS3_DpOT_EE5valueEvE4typeELPv0EEENS_10in_place_tESA_(ptr noundef nonnull align 4 dereferenceable(5) %5, ptr noundef nonnull align 1 dereferenceable(1) %6)
  ret void
}

; Function Attrs: mustprogress uwtable
define linkonce_odr hidden void @_ZN2tl6detail25expected_copy_assign_baseIN4LIEF4ok_tE11lief_errorsLb1EECI2NS0_21expected_storage_baseIS3_S4_Lb1ELb1EEEIJS3_ETnPNSt9enable_ifIXsr3std16is_constructibleIS3_DpOT_EE5valueEvE4typeELPv0EEENS_10in_place_tESA_(ptr noundef nonnull align 4 dereferenceable(5) %0, ptr noundef nonnull align 1 dereferenceable(1) %1) unnamed_addr #3 comdat align 2 {
  %3 = alloca ptr, align 8
  %4 = alloca ptr, align 8
  store ptr %0, ptr %3, align 8
  store ptr %1, ptr %4, align 8
  %5 = load ptr, ptr %3, align 8
  %6 = load ptr, ptr %4, align 8
  call void @_ZN2tl6detail18expected_move_baseIN4LIEF4ok_tE11lief_errorsLb1EECI2NS0_21expected_storage_baseIS3_S4_Lb1ELb1EEEIJS3_ETnPNSt9enable_ifIXsr3std16is_constructibleIS3_DpOT_EE5valueEvE4typeELPv0EEENS_10in_place_tESA_(ptr noundef nonnull align 4 dereferenceable(5) %5, ptr noundef nonnull align 1 dereferenceable(1) %6)
  ret void
}

; Function Attrs: mustprogress nounwind uwtable
define linkonce_odr hidden void @_ZN2tl6detail26expected_default_ctor_baseIN4LIEF4ok_tE11lief_errorsLb1EEC2ENS0_23default_constructor_tagE(ptr noundef nonnull align 1 dereferenceable(1) %0) unnamed_addr #1 comdat align 2 {
  %2 = alloca ptr, align 8
  store ptr %0, ptr %2, align 8
  ret void
}

; Function Attrs: mustprogress uwtable
define linkonce_odr hidden void @_ZN2tl6detail25expected_move_assign_baseIN4LIEF4ok_tE11lief_errorsLb1EECI2NS0_21expected_storage_baseIS3_S4_Lb1ELb1EEEIJS3_ETnPNSt9enable_ifIXsr3std16is_constructibleIS3_DpOT_EE5valueEvE4typeELPv0EEENS_10in_place_tESA_(ptr noundef nonnull align 4 dereferenceable(5) %0, ptr noundef nonnull align 1 dereferenceable(1) %1) unnamed_addr #3 comdat align 2 {
  %3 = alloca ptr, align 8
  %4 = alloca ptr, align 8
  store ptr %0, ptr %3, align 8
  store ptr %1, ptr %4, align 8
  %5 = load ptr, ptr %3, align 8
  %6 = load ptr, ptr %4, align 8
  call void @_ZN2tl6detail25expected_copy_assign_baseIN4LIEF4ok_tE11lief_errorsLb1EECI2NS0_21expected_storage_baseIS3_S4_Lb1ELb1EEEIJS3_ETnPNSt9enable_ifIXsr3std16is_constructibleIS3_DpOT_EE5valueEvE4typeELPv0EEENS_10in_place_tESA_(ptr noundef nonnull align 4 dereferenceable(5) %5, ptr noundef nonnull align 1 dereferenceable(1) %6)
  ret void
}

; Function Attrs: mustprogress uwtable
define linkonce_odr hidden void @_ZN2tl8expectedIN4LIEF4ok_tE11lief_errorsEC2IJS2_ETnPNSt9enable_ifIXsr3std16is_constructibleIS2_DpOT_EE5valueEvE4typeELPv0EEENS_10in_place_tES9_(ptr noundef nonnull align 4 dereferenceable(5) %0, ptr noundef nonnull align 1 dereferenceable(1) %1) unnamed_addr #3 comdat align 2 {
  %3 = alloca ptr, align 8
  %4 = alloca ptr, align 8
  store ptr %0, ptr %3, align 8
  store ptr %1, ptr %4, align 8
  %5 = load ptr, ptr %3, align 8
  %6 = load ptr, ptr %4, align 8
  call void @_ZN2tl6detail25expected_move_assign_baseIN4LIEF4ok_tE11lief_errorsLb1EECI2NS0_21expected_storage_baseIS3_S4_Lb1ELb1EEEIJS3_ETnPNSt9enable_ifIXsr3std16is_constructibleIS3_DpOT_EE5valueEvE4typeELPv0EEENS_10in_place_tESA_(ptr noundef nonnull align 4 dereferenceable(5) %5, ptr noundef nonnull align 1 dereferenceable(1) %6)
  call void @_ZN2tl6detail26expected_default_ctor_baseIN4LIEF4ok_tE11lief_errorsLb1EEC2ENS0_23default_constructor_tagE(ptr noundef nonnull align 1 dereferenceable(1) %5)
  ret void
}

; Function Attrs: mustprogress uwtable
define linkonce_odr hidden void @_ZN2tl8expectedIN4LIEF4ok_tE11lief_errorsEC2IS2_TnPNSt9enable_ifIXsr3std14is_convertibleIOT_S2_EE5valueEvE4typeELPv0ETnPNS6_IXaaaaaasr3std16is_constructibleIS2_S8_EE5valuentsr3std7is_sameINSt5decayIS7_E4typeENS_10in_place_tEEE5valuentsr3std7is_sameIS4_SF_EE5valuentsr3std7is_sameINS_10unexpectedIS3_EESF_EE5valueEvE4typeELSC_0EEES8_(ptr noundef nonnull align 4 dereferenceable(5) %0, ptr noundef nonnull align 1 dereferenceable(1) %1) unnamed_addr #3 comdat align 2 {
  %3 = alloca ptr, align 8
  %4 = alloca ptr, align 8
  store ptr %0, ptr %3, align 8
  store ptr %1, ptr %4, align 8
  %5 = load ptr, ptr %3, align 8
  %6 = load ptr, ptr %4, align 8
  call void @_ZN2tl8expectedIN4LIEF4ok_tE11lief_errorsEC2IJS2_ETnPNSt9enable_ifIXsr3std16is_constructibleIS2_DpOT_EE5valueEvE4typeELPv0EEENS_10in_place_tES9_(ptr noundef nonnull align 4 dereferenceable(5) %5, ptr noundef nonnull align 1 dereferenceable(1) %6)
  ret void
}

; Function Attrs: mustprogress nounwind uwtable
define linkonce_odr hidden void @_ZN4LIEF2okEv() #1 comdat {
  ret void
}

; Function Attrs: mustprogress uwtable
define i64 @_ZN4LIEF5MachO7Builder5buildEv(ptr noundef nonnull align 8 dereferenceable(137) %0) #3 align 2 {
  %2 = alloca %"class.tl::expected", align 4
  %3 = alloca ptr, align 8
  store ptr %0, ptr %3, align 8
  %4 = load ptr, ptr %3, align 8
  %5 = getelementptr inbounds %"class.LIEF::MachO::Builder", ptr %4, i32 0, i32 1
  %6 = load ptr, ptr %5, align 8
  %7 = getelementptr inbounds %"class.LIEF::MachO::Binary", ptr %6, i32 0, i32 1
  %8 = load i8, ptr %7, align 8
  %9 = trunc i8 %8 to i1
  br i1 %9, label %10, label %12

10:                                               ; preds = %1
  %11 = call i64 @_ZN4LIEF5MachO7Builder5buildINS0_7details7MachO64EEEN2tl8expectedINS_4ok_tE11lief_errorsEEv(ptr noundef nonnull align 8 dereferenceable(137) %4)
  store i64 %11, ptr %2, align 4
  br label %14

12:                                               ; preds = %1
  %13 = call i64 @_ZN4LIEF5MachO7Builder5buildINS0_7details7MachO32EEEN2tl8expectedINS_4ok_tE11lief_errorsEEv(ptr noundef nonnull align 8 dereferenceable(137) %4)
  store i64 %13, ptr %2, align 4
  br label %14

14:                                               ; preds = %12, %10
  %15 = load i64, ptr %2, align 4
  ret i64 %15
}

; Function Attrs: mustprogress uwtable
define i64 @_ZN4LIEF5MachO7Builder5writeERNS0_6BinaryERKNSt7__cxx1112basic_stringIcSt11char_traitsIcESaIcEEENS1_8config_tE(ptr noundef nonnull align 8 dereferenceable(384) %0, ptr noundef nonnull align 8 dereferenceable(32) %1, i8 %2) #3 align 2 personality ptr @__gxx_personality_v0 {
  %4 = alloca %"class.tl::expected", align 4
  %5 = alloca %"struct.LIEF::MachO::Builder::config_t", align 1
  %6 = alloca ptr, align 8
  %7 = alloca ptr, align 8
  %8 = alloca %"class.LIEF::MachO::Builder", align 8
  %9 = alloca %"struct.LIEF::MachO::Builder::config_t", align 1
  %10 = alloca ptr, align 8
  %11 = alloca i32, align 4
  %12 = alloca %"class.tl::expected", align 4
  %13 = alloca %"class.tl::expected", align 4
  %14 = alloca %"struct.LIEF::ok_t", align 1
  %15 = getelementptr inbounds %"struct.LIEF::MachO::Builder::config_t", ptr %5, i32 0, i32 0
  store i8 %2, ptr %15, align 1
  store ptr %0, ptr %6, align 8
  store ptr %1, ptr %7, align 8
  %16 = load ptr, ptr %6, align 8
  call void @llvm.memcpy.p0.p0.i64(ptr align 1 %9, ptr align 1 %5, i64 1, i1 false)
  %17 = getelementptr inbounds %"struct.LIEF::MachO::Builder::config_t", ptr %9, i32 0, i32 0
  %18 = load i8, ptr %17, align 1
  call void @_ZN4LIEF5MachO7BuilderC1ERNS0_6BinaryENS1_8config_tE(ptr noundef nonnull align 8 dereferenceable(137) %8, ptr noundef nonnull align 8 dereferenceable(384) %16, i8 %18)
  %19 = invoke i64 @_ZN4LIEF5MachO7Builder5buildEv(ptr noundef nonnull align 8 dereferenceable(137) %8)
          to label %20 unwind label %27

20:                                               ; preds = %3
  store i64 %19, ptr %12, align 4
  %21 = load ptr, ptr %7, align 8
  %22 = invoke i64 @_ZNK4LIEF5MachO7Builder5writeERKNSt7__cxx1112basic_stringIcSt11char_traitsIcESaIcEEE(ptr noundef nonnull align 8 dereferenceable(137) %8, ptr noundef nonnull align 8 dereferenceable(32) %21)
          to label %23 unwind label %27

23:                                               ; preds = %20
  store i64 %22, ptr %13, align 4
  invoke void @_ZN4LIEF2okEv()
          to label %24 unwind label %27

24:                                               ; preds = %23
  invoke void @_ZN2tl8expectedIN4LIEF4ok_tE11lief_errorsEC2IS2_TnPNSt9enable_ifIXsr3std14is_convertibleIOT_S2_EE5valueEvE4typeELPv0ETnPNS6_IXaaaaaasr3std16is_constructibleIS2_S8_EE5valuentsr3std7is_sameINSt5decayIS7_E4typeENS_10in_place_tEEE5valuentsr3std7is_sameIS4_SF_EE5valuentsr3std7is_sameINS_10unexpectedIS3_EESF_EE5valueEvE4typeELSC_0EEES8_(ptr noundef nonnull align 4 dereferenceable(5) %4, ptr noundef nonnull align 1 dereferenceable(1) %14)
          to label %25 unwind label %27

25:                                               ; preds = %24
  call void @_ZN4LIEF5MachO7BuilderD1Ev(ptr noundef nonnull align 8 dereferenceable(137) %8) #15
  %26 = load i64, ptr %4, align 4
  ret i64 %26

27:                                               ; preds = %24, %23, %20, %3
  %28 = landingpad { ptr, i32 }
          cleanup
  %29 = extractvalue { ptr, i32 } %28, 0
  store ptr %29, ptr %10, align 8
  %30 = extractvalue { ptr, i32 } %28, 1
  store i32 %30, ptr %11, align 4
  call void @_ZN4LIEF5MachO7BuilderD1Ev(ptr noundef nonnull align 8 dereferenceable(137) %8) #15
  br label %31

31:                                               ; preds = %27
  %32 = load ptr, ptr %10, align 8
  %33 = load i32, ptr %11, align 4
  %34 = insertvalue { ptr, i32 } poison, ptr %32, 0
  %35 = insertvalue { ptr, i32 } %34, i32 %33, 1
  resume { ptr, i32 } %35
}

; Function Attrs: mustprogress nounwind uwtable
define linkonce_odr hidden void @_ZN4LIEF5MachO7Builder8config_tC2Ev(ptr noundef nonnull align 1 dereferenceable(1) %0) unnamed_addr #1 comdat align 2 {
  %2 = alloca ptr, align 8
  store ptr %0, ptr %2, align 8
  %3 = load ptr, ptr %2, align 8
  %4 = getelementptr inbounds %"struct.LIEF::MachO::Builder::config_t", ptr %3, i32 0, i32 0
  store i8 1, ptr %4, align 1
  ret void
}

; Function Attrs: mustprogress uwtable
define i64 @_ZN4LIEF5MachO7Builder5writeERNS0_6BinaryERKNSt7__cxx1112basic_stringIcSt11char_traitsIcESaIcEEE(ptr noundef nonnull align 8 dereferenceable(384) %0, ptr noundef nonnull align 8 dereferenceable(32) %1) #3 align 2 {
  %3 = alloca %"class.tl::expected", align 4
  %4 = alloca ptr, align 8
  %5 = alloca ptr, align 8
  %6 = alloca %"struct.LIEF::MachO::Builder::config_t", align 1
  %7 = alloca %"struct.LIEF::MachO::Builder::config_t", align 1
  store ptr %0, ptr %4, align 8
  store ptr %1, ptr %5, align 8
  call void @_ZN4LIEF5MachO7Builder8config_tC2Ev(ptr noundef nonnull align 1 dereferenceable(1) %6) #15
  %8 = load ptr, ptr %4, align 8
  %9 = load ptr, ptr %5, align 8
  call void @llvm.memcpy.p0.p0.i64(ptr align 1 %7, ptr align 1 %6, i64 1, i1 false)
  %10 = getelementptr inbounds %"struct.LIEF::MachO::Builder::config_t", ptr %7, i32 0, i32 0
  %11 = load i8, ptr %10, align 1
  %12 = call i64 @_ZN4LIEF5MachO7Builder5writeERNS0_6BinaryERKNSt7__cxx1112basic_stringIcSt11char_traitsIcESaIcEEENS1_8config_tE(ptr noundef nonnull align 8 dereferenceable(384) %8, ptr noundef nonnull align 8 dereferenceable(32) %9, i8 %11)
  store i64 %12, ptr %3, align 4
  %13 = load i64, ptr %3, align 4
  ret i64 %13
}