; Function Attrs: mustprogress uwtable
define noundef i64 @_ZN4LIEF5MachO7Builder5writeERNS0_6BinaryERKNSt7__cxx1112basic_stringIcSt11char_traitsIcESaIcEEE(ptr noundef nonnull align 8 dereferenceable(384) %0, ptr noundef nonnull align 8 dereferenceable(32) %1) local_unnamed_addr #3 align 2 personality ptr @__gxx_personality_v0 {
  %3 = alloca %"class.LIEF::MachO::Builder", align 8
  call void @llvm.lifetime.start.p0(i64 144, ptr nonnull %3)
  call void @_ZN4LIEF5MachO7BuilderC1ERNS0_6BinaryENS1_8config_tE(ptr noundef nonnull align 8 dereferenceable(137) %3, ptr noundef nonnull align 8 dereferenceable(384) %0, i8 1)
  %4 = getelementptr inbounds i8, ptr %3, i64 24
  %5 = load ptr, ptr %4, align 8
  %6 = getelementptr inbounds i8, ptr %5, i64 24
  %7 = load i8, ptr %6, align 8
  %8 = and i8 %7, 1
  %.not.i.i = icmp eq i8 %8, 0
  br i1 %.not.i.i, label %11, label %9

9:                                                ; preds = %2
  %10 = invoke i64 @_ZN4LIEF5MachO7Builder5buildINS0_7details7MachO64EEEN2tl8expectedINS_4ok_tE11lief_errorsEEv(ptr noundef nonnull align 8 dereferenceable(137) %3)
          to label %_ZN4LIEF5MachO7Builder5buildEv.exit.i unwind label %14

11:                                               ; preds = %2
  %12 = invoke i64 @_ZN4LIEF5MachO7Builder5buildINS0_7details7MachO32EEEN2tl8expectedINS_4ok_tE11lief_errorsEEv(ptr noundef nonnull align 8 dereferenceable(137) %3)
          to label %_ZN4LIEF5MachO7Builder5buildEv.exit.i unwind label %14

_ZN4LIEF5MachO7Builder5buildEv.exit.i:            ; preds = %11, %9
  %13 = invoke i64 @_ZNK4LIEF5MachO7Builder5writeERKNSt7__cxx1112basic_stringIcSt11char_traitsIcESaIcEEE(ptr noundef nonnull align 8 dereferenceable(137) %3, ptr noundef nonnull align 8 dereferenceable(32) %1)
          to label %_ZN4LIEF5MachO7Builder5writeERNS0_6BinaryERKNSt7__cxx1112basic_stringIcSt11char_traitsIcESaIcEEENS1_8config_tE.exit unwind label %14

14:                                               ; preds = %_ZN4LIEF5MachO7Builder5buildEv.exit.i, %11, %9
  %15 = landingpad { ptr, i32 }
          cleanup
  call void @_ZN4LIEF5MachO7BuilderD1Ev(ptr noundef nonnull align 8 dereferenceable(137) %3) #20
  resume { ptr, i32 } %15

_ZN4LIEF5MachO7Builder5writeERNS0_6BinaryERKNSt7__cxx1112basic_stringIcSt11char_traitsIcESaIcEEENS1_8config_tE.exit: ; preds = %_ZN4LIEF5MachO7Builder5buildEv.exit.i
  call void @_ZN4LIEF5MachO7BuilderD1Ev(ptr noundef nonnull align 8 dereferenceable(137) %3) #20
  call void @llvm.lifetime.end.p0(i64 144, ptr nonnull %3)
  ret i64 4294967296
}